; Function Attrs: nounwind uwtable
define internal fastcc void @setup_check_update(ptr noundef nonnull captures(none) %0, i32 noundef range(i32 0, 2) %1, ptr noundef %2, i32 noundef range(i32 0, 2) %3, ptr noundef %4, ptr noundef %5) unnamed_addr #0 {
  %7 = load ptr, ptr %0, align 8, !tbaa !36
  %8 = getelementptr inbounds nuw i8, ptr %7, i64 16
  %9 = load ptr, ptr %8, align 8, !tbaa !28
  %10 = getelementptr inbounds nuw i8, ptr %7, i64 8
  store i32 %1, ptr %10, align 8, !tbaa !24
  %11 = getelementptr inbounds nuw i8, ptr %7, i64 40
  store ptr %2, ptr %11, align 8, !tbaa !38
  %12 = getelementptr inbounds nuw i8, ptr %7, i64 48
  store i32 %3, ptr %12, align 8, !tbaa !39
  %13 = load ptr, ptr @ir_rmprotection, align 8, !tbaa !9
  %14 = tail call ptr @OSSL_CMP_MSG_dup(ptr noundef %13) #7
  %15 = load ptr, ptr %0, align 8, !tbaa !36
  %16 = getelementptr inbounds nuw i8, ptr %15, i64 24
  store ptr %14, ptr %16, align 8, !tbaa !27
  %17 = icmp eq ptr %14, null
  br i1 %17, label %22, label %18

18:                                               ; preds = %6
  %.not = icmp eq ptr %5, null
  br i1 %.not, label %27, label %19

19:                                               ; preds = %18
  %20 = getelementptr inbounds nuw i8, ptr %9, i64 288
  %21 = tail call i32 @ossl_cmp_asn1_octet_string_set1_bytes(ptr noundef nonnull %20, ptr noundef nonnull %5, i32 noundef 16) #7
  %.not25 = icmp eq i32 %21, 0
  br i1 %.not25, label %._crit_edge, label %27

._crit_edge:                                      ; preds = %19
  %.pre = load ptr, ptr %0, align 8, !tbaa !36
  %.phi.trans.insert = getelementptr inbounds nuw i8, ptr %.pre, i64 24
  %.pre29 = load ptr, ptr %.phi.trans.insert, align 8, !tbaa !27
  br label %22

22:                                               ; preds = %._crit_edge, %6
  %23 = phi ptr [ %.pre29, %._crit_edge ], [ null, %6 ]
  %24 = phi ptr [ %.pre, %._crit_edge ], [ %15, %6 ]
  tail call void @OSSL_CMP_MSG_free(ptr noundef %23) #7
  %25 = getelementptr inbounds nuw i8, ptr %24, i64 16
  %26 = load ptr, ptr %25, align 8, !tbaa !28
  tail call void @OSSL_CMP_CTX_free(ptr noundef %26) #7
  tail call void @CRYPTO_free(ptr noundef nonnull %24, ptr noundef nonnull @.str.14, i32 noundef 47) #7
  store ptr null, ptr %0, align 8, !tbaa !36
  br label %42

27:                                               ; preds = %19, %18
  %.not26 = icmp eq ptr %4, null
  br i1 %.not26, label %42, label %28

28:                                               ; preds = %27
  %29 = tail call ptr @ASN1_OCTET_STRING_new() #7
  %30 = icmp eq ptr %29, null
  br i1 %30, label %35, label %31

31:                                               ; preds = %28
  %32 = tail call i32 @ASN1_OCTET_STRING_set(ptr noundef nonnull %29, ptr noundef nonnull %4, i32 noundef 16) #7
  %.not27 = icmp eq i32 %32, 0
  br i1 %.not27, label %35, label %33

33:                                               ; preds = %31
  %34 = tail call i32 @OSSL_CMP_CTX_set1_transactionID(ptr noundef %9, ptr noundef nonnull %29) #7
  %.not28 = icmp eq i32 %34, 0
  br i1 %.not28, label %35, label %41

35:                                               ; preds = %33, %31, %28
  %36 = load ptr, ptr %0, align 8, !tbaa !36
  %37 = getelementptr inbounds nuw i8, ptr %36, i64 24
  %38 = load ptr, ptr %37, align 8, !tbaa !27
  tail call void @OSSL_CMP_MSG_free(ptr noundef %38) #7
  %39 = getelementptr inbounds nuw i8, ptr %36, i64 16
  %40 = load ptr, ptr %39, align 8, !tbaa !28
  tail call void @OSSL_CMP_CTX_free(ptr noundef %40) #7
  tail call void @CRYPTO_free(ptr noundef %36, ptr noundef nonnull @.str.14, i32 noundef 47) #7
  store ptr null, ptr %0, align 8, !tbaa !36
  br label %41

41:                                               ; preds = %35, %33
  tail call void @ASN1_OCTET_STRING_free(ptr noundef %29) #7
  br label %42

42:                                               ; preds = %27, %41, %22
  ret void
}